target datalayout = "e-m:e-p270:32:32-p271:32:32-p272:64:64-i64:64-i128:128-f80:128-n8:16:32:64-S128"
target triple = "x86_64-pc-linux-gnu"

@.str.80 = private unnamed_addr constant [21 x i8] c"invalid Unicode list\00", align 1
@.str.91 = private unnamed_addr constant [22 x i8] c"invalid Unicode range\00", align 1

; Function Attrs: inlinehint nounwind sspstrong willreturn memory(none) uwtable
define internal i32 @rb_isspace(i32 noundef %0) #7 {
  %2 = alloca i32, align 4
  store i32 %0, ptr %2, align 4, !tbaa !16
  %3 = load i32, ptr %2, align 4, !tbaa !16
  %4 = icmp eq i32 %3, 32
  br i1 %4, label %13, label %5

5:                                                ; preds = %1
  %6 = load i32, ptr %2, align 4, !tbaa !16
  %7 = icmp sle i32 9, %6
  br i1 %7, label %8, label %11

8:                                                ; preds = %5
  %9 = load i32, ptr %2, align 4, !tbaa !16
  %10 = icmp sle i32 %9, 13
  br label %11

11:                                               ; preds = %8, %5
  %12 = phi i1 [ false, %5 ], [ %10, %8 ]
  br label %13

13:                                               ; preds = %11, %1
  %14 = phi i1 [ true, %1 ], [ %12, %11 ]
  %15 = zext i1 %14 to i32
  ret i32 %15
}

; Function Attrs: nounwind sspstrong uwtable
define internal i32 @unescape_unicode_list(ptr noundef %0, ptr noundef %1, i64 noundef %2, ptr noundef %3, ptr noundef %4) #0 {
  %6 = alloca i32, align 4
  %7 = alloca ptr, align 8
  %8 = alloca ptr, align 8
  %9 = alloca i64, align 8
  %10 = alloca ptr, align 8
  %11 = alloca ptr, align 8
  %12 = alloca ptr, align 8
  %13 = alloca i32, align 4
  %14 = alloca i64, align 8
  %15 = alloca i64, align 8
  %16 = alloca i32, align 4
  store ptr %0, ptr %7, align 8, !tbaa !134
  store ptr %1, ptr %8, align 8, !tbaa !13
  store i64 %2, ptr %9, align 8, !tbaa !11
  store ptr %3, ptr %10, align 8, !tbaa !67
  store ptr %4, ptr %11, align 8, !tbaa !13
  call void @llvm.lifetime.start.p0(i64 8, ptr %12) #28
  %17 = load ptr, ptr %7, align 8, !tbaa !134
  %18 = load ptr, ptr %17, align 8, !tbaa !13
  store ptr %18, ptr %12, align 8, !tbaa !13
  call void @llvm.lifetime.start.p0(i64 4, ptr %13) #28
  store i32 0, ptr %13, align 4, !tbaa !16
  call void @llvm.lifetime.start.p0(i64 8, ptr %14) #28
  call void @llvm.lifetime.start.p0(i64 8, ptr %15) #28
  br label %19

19:                                               ; preds = %31, %5
  %20 = load ptr, ptr %12, align 8, !tbaa !13
  %21 = load ptr, ptr %8, align 8, !tbaa !13
  %22 = icmp ult ptr %20, %21
  br i1 %22, label %23, label %29

23:                                               ; preds = %19
  %24 = load ptr, ptr %12, align 8, !tbaa !13
  %25 = load i8, ptr %24, align 1, !tbaa !15
  %26 = sext i8 %25 to i32
  %27 = call i32 @rb_isspace(i32 noundef %26) #31
  %28 = icmp ne i32 %27, 0
  br label %29

29:                                               ; preds = %23, %19
  %30 = phi i1 [ false, %19 ], [ %28, %23 ]
  br i1 %30, label %31, label %34

31:                                               ; preds = %29
  %32 = load ptr, ptr %12, align 8, !tbaa !13
  %33 = getelementptr i8, ptr %32, i32 1
  store ptr %33, ptr %12, align 8, !tbaa !13
  br label %19, !llvm.loop !141

34:                                               ; preds = %29
  br label %35

35:                                               ; preds = %80, %34
  br label %36

36:                                               ; preds = %35
  %37 = load ptr, ptr %12, align 8, !tbaa !13
  %38 = load ptr, ptr %8, align 8, !tbaa !13
  %39 = load ptr, ptr %12, align 8, !tbaa !13
  %40 = ptrtoint ptr %38 to i64
  %41 = ptrtoint ptr %39 to i64
  %42 = sub i64 %40, %41
  %43 = call i64 @ruby_scan_hex(ptr noundef %37, i64 noundef %42, ptr noundef %15)
  store i64 %43, ptr %14, align 8, !tbaa !11
  %44 = load i64, ptr %15, align 8, !tbaa !11
  %45 = icmp eq i64 %44, 0
  br i1 %45, label %46, label %47

46:                                               ; preds = %36
  br label %81

47:                                               ; preds = %36
  %48 = load i64, ptr %15, align 8, !tbaa !11
  %49 = icmp ult i64 6, %48
  br i1 %49, label %50, label %53

50:                                               ; preds = %47
  %51 = load ptr, ptr %11, align 8, !tbaa !13
  %52 = call i64 @strlcpy(ptr noundef %51, ptr noundef @.str.91, i64 noundef 90)
  store i32 -1, ptr %6, align 4
  store i32 1, ptr %16, align 4
  br label %90

53:                                               ; preds = %47
  %54 = load i64, ptr %15, align 8, !tbaa !11
  %55 = load ptr, ptr %12, align 8, !tbaa !13
  %56 = getelementptr i8, ptr %55, i64 %54
  store ptr %56, ptr %12, align 8, !tbaa !13
  %57 = load i64, ptr %14, align 8, !tbaa !11
  %58 = load i64, ptr %9, align 8, !tbaa !11
  %59 = load ptr, ptr %10, align 8, !tbaa !67
  %60 = load ptr, ptr %11, align 8, !tbaa !13
  %61 = call i32 @append_utf8(i64 noundef %57, i64 noundef %58, ptr noundef %59, ptr noundef %60)
  %62 = icmp ne i32 %61, 0
  br i1 %62, label %63, label %64

63:                                               ; preds = %53
  store i32 -1, ptr %6, align 4
  store i32 1, ptr %16, align 4
  br label %90

64:                                               ; preds = %53
  store i32 1, ptr %13, align 4, !tbaa !16
  br label %65

65:                                               ; preds = %77, %64
  %66 = load ptr, ptr %12, align 8, !tbaa !13
  %67 = load ptr, ptr %8, align 8, !tbaa !13
  %68 = icmp ult ptr %66, %67
  br i1 %68, label %69, label %75

69:                                               ; preds = %65
  %70 = load ptr, ptr %12, align 8, !tbaa !13
  %71 = load i8, ptr %70, align 1, !tbaa !15
  %72 = sext i8 %71 to i32
  %73 = call i32 @rb_isspace(i32 noundef %72) #31
  %74 = icmp ne i32 %73, 0
  br label %75

75:                                               ; preds = %69, %65
  %76 = phi i1 [ false, %65 ], [ %74, %69 ]
  br i1 %76, label %77, label %80

77:                                               ; preds = %75
  %78 = load ptr, ptr %12, align 8, !tbaa !13
  %79 = getelementptr i8, ptr %78, i32 1
  store ptr %79, ptr %12, align 8, !tbaa !13
  br label %65, !llvm.loop !142

80:                                               ; preds = %75
  br label %35

81:                                               ; preds = %46
  %82 = load i32, ptr %13, align 4, !tbaa !16
  %83 = icmp eq i32 %82, 0
  br i1 %83, label %84, label %87

84:                                               ; preds = %81
  %85 = load ptr, ptr %11, align 8, !tbaa !13
  %86 = call i64 @strlcpy(ptr noundef %85, ptr noundef @.str.80, i64 noundef 90)
  store i32 -1, ptr %6, align 4
  store i32 1, ptr %16, align 4
  br label %90

87:                                               ; preds = %81
  %88 = load ptr, ptr %12, align 8, !tbaa !13
  %89 = load ptr, ptr %7, align 8, !tbaa !134
  store ptr %88, ptr %89, align 8, !tbaa !13
  store i32 0, ptr %6, align 4
  store i32 1, ptr %16, align 4
  br label %90

90:                                               ; preds = %87, %84, %63, %50
  call void @llvm.lifetime.end.p0(i64 8, ptr %15) #28
  call void @llvm.lifetime.end.p0(i64 8, ptr %14) #28
  call void @llvm.lifetime.end.p0(i64 4, ptr %13) #28
  call void @llvm.lifetime.end.p0(i64 8, ptr %12) #28
  %91 = load i32, ptr %6, align 4
  ret i32 %91
}