; Function Attrs: nounwind sspstrong uwtable
define internal fastcc range(i32 -1, 1) i32 @unescape_unicode_list(ptr noundef nonnull captures(none) %0, ptr noundef %1, i64 noundef %2, ptr noundef nonnull captures(none) %3, ptr noundef nonnull writeonly captures(none) %4) unnamed_addr #2 {
  %6 = ptrtoint ptr %1 to i64
  %7 = alloca i64, align 8
  %8 = load ptr, ptr %0, align 8, !tbaa !64
  %9 = ptrtoint ptr %8 to i64
  call void @llvm.lifetime.start.p0(i64 8, ptr nonnull %7) #29
  %10 = icmp ult ptr %8, %1
  br i1 %10, label %.lr.ph.preheader, label %.critedge

.lr.ph.preheader:                                 ; preds = %5
  %11 = sub i64 %6, %9
  %scevgep = getelementptr i8, ptr %8, i64 %11
  br label %.lr.ph

.lr.ph:                                           ; preds = %.lr.ph.preheader, %17
  %.02537 = phi ptr [ %18, %17 ], [ %8, %.lr.ph.preheader ]
  %12 = load i8, ptr %.02537, align 1, !tbaa !7
  %13 = sext i8 %12 to i32
  %14 = icmp ne i8 %12, 32
  %15 = add nsw i32 %13, -14
  %16 = icmp ult i32 %15, -5
  %narrow.i.not = select i1 %14, i1 %16, i1 false
  br i1 %narrow.i.not, label %.critedge.loopexit, label %17

17:                                               ; preds = %.lr.ph
  %18 = getelementptr i8, ptr %.02537, i64 1
  %exitcond.not = icmp eq ptr %18, %1
  br i1 %exitcond.not, label %.critedge.loopexit, label %.lr.ph, !llvm.loop !262

.critedge.loopexit:                               ; preds = %17, %.lr.ph
  %.025.lcssa.ph = phi ptr [ %.02537, %.lr.ph ], [ %scevgep, %17 ]
  %.pre = ptrtoint ptr %.025.lcssa.ph to i64
  br label %.critedge

.critedge:                                        ; preds = %.critedge.loopexit, %5
  %.pre-phi = phi i64 [ %.pre, %.critedge.loopexit ], [ %9, %5 ]
  %.025.lcssa = phi ptr [ %.025.lcssa.ph, %.critedge.loopexit ], [ %8, %5 ]
  %19 = sub i64 %6, %.pre-phi
  %20 = call i64 @ruby_scan_hex(ptr noundef %.025.lcssa, i64 noundef %19, ptr noundef nonnull %7) #29
  %21 = load i64, ptr %7, align 8, !tbaa !18
  %22 = icmp eq i64 %21, 0
  br i1 %22, label %._crit_edge.thread, label %.lr.ph46

.lr.ph46:                                         ; preds = %.critedge, %.critedge2
  %23 = phi i64 [ %44, %.critedge2 ], [ %21, %.critedge ]
  %24 = phi i64 [ %43, %.critedge2 ], [ %20, %.critedge ]
  %.145 = phi ptr [ %.2.lcssa, %.critedge2 ], [ %.025.lcssa, %.critedge ]
  %.14550 = ptrtoint ptr %.145 to i64
  %25 = icmp ugt i64 %23, 6
  br i1 %25, label %26, label %27

26:                                               ; preds = %.lr.ph46
  call void @llvm.memcpy.p0.p0.i64(ptr noundef nonnull align 1 dereferenceable(22) %4, ptr noundef nonnull align 1 dereferenceable(22) @.str.91, i64 noundef 22, i1 false) #29
  br label %.loopexit

27:                                               ; preds = %.lr.ph46
  %28 = call fastcc i32 @append_utf8(i64 noundef %24, i64 noundef %2, ptr noundef %3, ptr noundef %4)
  %.not27 = icmp eq i32 %28, 0
  br i1 %.not27, label %29, label %.loopexit

29:                                               ; preds = %27
  %30 = getelementptr i8, ptr %.145, i64 %23
  %31 = icmp ult ptr %30, %1
  br i1 %31, label %.lr.ph41.preheader, label %.critedge2

.lr.ph41.preheader:                               ; preds = %29
  %scevgep49 = getelementptr i8, ptr %.145, i64 %6
  %32 = sub i64 0, %.14550
  %scevgep51 = getelementptr i8, ptr %scevgep49, i64 %32
  br label %.lr.ph41

.lr.ph41:                                         ; preds = %.lr.ph41.preheader, %38
  %.240 = phi ptr [ %39, %38 ], [ %30, %.lr.ph41.preheader ]
  %33 = load i8, ptr %.240, align 1, !tbaa !7
  %34 = sext i8 %33 to i32
  %35 = icmp ne i8 %33, 32
  %36 = add nsw i32 %34, -14
  %37 = icmp ult i32 %36, -5
  %narrow.i29.not = select i1 %35, i1 %37, i1 false
  br i1 %narrow.i29.not, label %.critedge2, label %38

38:                                               ; preds = %.lr.ph41
  %39 = getelementptr i8, ptr %.240, i64 1
  %40 = icmp ult ptr %39, %1
  br i1 %40, label %.lr.ph41, label %.critedge2, !llvm.loop !263

.critedge2:                                       ; preds = %.lr.ph41, %38, %29
  %.2.lcssa = phi ptr [ %30, %29 ], [ %scevgep51, %38 ], [ %.240, %.lr.ph41 ]
  %41 = ptrtoint ptr %.2.lcssa to i64
  %42 = sub i64 %6, %41
  %43 = call i64 @ruby_scan_hex(ptr noundef %.2.lcssa, i64 noundef %42, ptr noundef nonnull %7) #29
  %44 = load i64, ptr %7, align 8, !tbaa !18
  %45 = icmp eq i64 %44, 0
  br i1 %45, label %._crit_edge, label %.lr.ph46

._crit_edge.thread:                               ; preds = %.critedge
  call void @llvm.memcpy.p0.p0.i64(ptr noundef nonnull align 1 dereferenceable(21) %4, ptr noundef nonnull align 1 dereferenceable(21) @.str.80, i64 noundef 21, i1 false) #29
  br label %.loopexit

._crit_edge:                                      ; preds = %.critedge2
  store ptr %.2.lcssa, ptr %0, align 8, !tbaa !64
  br label %.loopexit

.loopexit:                                        ; preds = %27, %._crit_edge, %._crit_edge.thread, %26
  %.0 = phi i32 [ -1, %._crit_edge.thread ], [ 0, %._crit_edge ], [ -1, %26 ], [ -1, %27 ]
  call void @llvm.lifetime.end.p0(i64 8, ptr nonnull %7) #29
  ret i32 %.0
}